; Function Attrs: mustprogress uwtable
define void @_ZN16PacketListHeader25columnVisibilityTriggeredEv(ptr noundef nonnull align 8 dereferenceable(44) %0) #0 align 2 personality ptr @__gxx_personality_v0 {
  %2 = alloca %class.QVariant, align 8
  %3 = tail call noundef ptr @_ZNK7QObject6senderEv(ptr noundef nonnull align 8 dereferenceable(16) %0)
  %4 = tail call noundef ptr @_ZNK11QMetaObject4castEPK7QObject(ptr noundef nonnull align 8 dereferenceable(56) @_ZN7QAction16staticMetaObjectE, ptr noundef %3)
  %.not = icmp eq ptr %4, null
  br i1 %.not, label %16, label %5

5:                                                ; preds = %1
  call void @_ZNK7QAction4dataEv(ptr dead_on_unwind nonnull writable sret(%class.QVariant) align 8 %2, ptr noundef nonnull align 8 dereferenceable(16) %4)
  %6 = invoke noundef i32 @_ZNK8QVariant5toIntEPb(ptr noundef nonnull align 8 dereferenceable(32) %2, ptr noundef null)
          to label %7 unwind label %13

7:                                                ; preds = %5
  call void @_ZN8QVariantD1Ev(ptr noundef nonnull align 8 dereferenceable(32) %2) #10
  %8 = call noundef zeroext i1 @_ZNK7QAction9isCheckedEv(ptr noundef nonnull align 8 dereferenceable(16) %4)
  %9 = zext i1 %8 to i32
  call void @set_column_visible(i32 noundef %6, i32 noundef %9)
  %10 = call noundef zeroext i1 @_ZNK7QAction9isCheckedEv(ptr noundef nonnull align 8 dereferenceable(16) %4)
  %not. = xor i1 %10, true
  call void @_ZN11QHeaderView16setSectionHiddenEib(ptr noundef nonnull align 8 dereferenceable(40) %0, i32 noundef %6, i1 noundef zeroext %not.)
  %11 = call noundef zeroext i1 @_ZNK7QAction9isCheckedEv(ptr noundef nonnull align 8 dereferenceable(16) %4)
  br i1 %11, label %12, label %15

12:                                               ; preds = %7
  call void @_ZN16PacketListHeader16resetColumnWidthEi(ptr noundef nonnull align 8 dereferenceable(44) %0, i32 noundef %6)
  br label %15

13:                                               ; preds = %5
  %14 = landingpad { ptr, i32 }
          cleanup
  call void @_ZN8QVariantD1Ev(ptr noundef nonnull align 8 dereferenceable(32) %2) #10
  resume { ptr, i32 } %14

15:                                               ; preds = %12, %7
  call void @prefs_main_write()
  br label %16

16:                                               ; preds = %1, %15
  ret void
}